; Function Attrs: mustprogress uwtable
define noundef zeroext i1 @_ZNK3g2o14VertexSE3Euler5writeERSo(ptr noundef nonnull align 16 dereferenceable(348) %0, ptr noundef nonnull align 8 dereferenceable(8) %1) unnamed_addr #5 align 2 personality ptr @__gxx_personality_v0 {
  %3 = alloca %"class.Eigen::Matrix", align 16
  call void @llvm.lifetime.start.p0(i64 48, ptr nonnull %3) #23
  %4 = getelementptr inbounds nuw i8, ptr %0, i64 192
  call void @_ZN3g2o8internal10toVectorETERKN5Eigen9TransformIdLi3ELi1ELi0EEE(ptr dead_on_unwind nonnull writable sret(%"class.Eigen::Matrix") align 16 %3, ptr noundef nonnull align 16 dereferenceable(128) %4)
  br label %5

5:                                                ; preds = %5, %2
  %indvars.iv.i = phi i64 [ 0, %2 ], [ %indvars.iv.next.i, %5 ]
  %6 = getelementptr inbounds nuw double, ptr %3, i64 %indvars.iv.i
  %7 = load double, ptr %6, align 8, !tbaa !22
  %8 = call noundef nonnull align 8 dereferenceable(8) ptr @_ZNSo9_M_insertIdEERSoT_(ptr noundef nonnull align 8 dereferenceable(8) %1, double noundef %7)
  %9 = call noundef nonnull align 8 dereferenceable(8) ptr @_ZSt16__ostream_insertIcSt11char_traitsIcEERSt13basic_ostreamIT_T0_ES6_PKS3_l(ptr noundef nonnull align 8 dereferenceable(8) %8, ptr noundef nonnull @.str.9, i64 noundef 1)
  %indvars.iv.next.i = add nuw nsw i64 %indvars.iv.i, 1
  %exitcond.not.i = icmp eq i64 %indvars.iv.next.i, 6
  br i1 %exitcond.not.i, label %_ZN3g2o8internal11writeVectorIN5Eigen6MatrixIdLi6ELi1ELi0ELi6ELi1EEEEEbRSoRKNS2_9DenseBaseIT_EE.exit, label %5, !llvm.loop !24

_ZN3g2o8internal11writeVectorIN5Eigen6MatrixIdLi6ELi1ELi0ELi6ELi1EEEEEbRSoRKNS2_9DenseBaseIT_EE.exit: ; preds = %5
  %10 = load ptr, ptr %1, align 8, !tbaa !3
  %11 = getelementptr i8, ptr %10, i64 -24
  %12 = load i64, ptr %11, align 8
  %13 = getelementptr inbounds i8, ptr %1, i64 %12
  %14 = getelementptr inbounds nuw i8, ptr %13, i64 32
  %15 = load i32, ptr %14, align 8, !tbaa !6
  %16 = icmp eq i32 %15, 0
  call void @llvm.lifetime.end.p0(i64 48, ptr nonnull %3) #23
  ret i1 %16
}